target datalayout = "e-m:e-p270:32:32-p271:32:32-p272:64:64-i64:64-i128:128-f80:128-n8:16:32:64-S128"
target triple = "x86_64-pc-linux-gnu"

%struct.StringArray = type { ptr, i32, i32 }

@tmpfiles = internal global %struct.StringArray zeroinitializer, align 8

; Function Attrs: nounwind uwtable
define internal void @cleanup() #0 {
  %1 = alloca i32, align 4
  call void @llvm.lifetime.start.p0(i64 4, ptr %1) #11
  store i32 0, ptr %1, align 4, !tbaa !12
  br label %2

2:                                                ; preds = %14, %0
  %3 = load i32, ptr %1, align 4, !tbaa !12
  %4 = load i32, ptr getelementptr inbounds nuw (%struct.StringArray, ptr @tmpfiles, i32 0, i32 2), align 4, !tbaa !20
  %5 = icmp slt i32 %3, %4
  br i1 %5, label %7, label %6

6:                                                ; preds = %2
  call void @llvm.lifetime.end.p0(i64 4, ptr %1) #11
  br label %17

7:                                                ; preds = %2
  %8 = load ptr, ptr @tmpfiles, align 8, !tbaa !22
  %9 = load i32, ptr %1, align 4, !tbaa !12
  %10 = sext i32 %9 to i64
  %11 = getelementptr inbounds ptr, ptr %8, i64 %10
  %12 = load ptr, ptr %11, align 8, !tbaa !7
  %13 = call i32 @unlink(ptr noundef %12) #11
  br label %14

14:                                               ; preds = %7
  %15 = load i32, ptr %1, align 4, !tbaa !12
  %16 = add nsw i32 %15, 1
  store i32 %16, ptr %1, align 4, !tbaa !12
  br label %2, !llvm.loop !26

17:                                               ; preds = %6
  ret void
}