; Function Attrs: nofree nounwind uwtable
define internal void @cleanup() #0 {
  %1 = load i32, ptr getelementptr inbounds nuw (i8, ptr @tmpfiles, i64 12), align 4, !tbaa !15
  %2 = icmp sgt i32 %1, 0
  br i1 %2, label %.lr.ph, label %._crit_edge

._crit_edge:                                      ; preds = %.lr.ph, %0
  ret void

.lr.ph:                                           ; preds = %0, %.lr.ph
  %indvars.iv = phi i64 [ %indvars.iv.next, %.lr.ph ], [ 0, %0 ]
  %3 = load ptr, ptr @tmpfiles, align 8, !tbaa !23
  %4 = getelementptr inbounds nuw ptr, ptr %3, i64 %indvars.iv
  %5 = load ptr, ptr %4, align 8, !tbaa !7
  %6 = tail call i32 @unlink(ptr noundef %5) #18
  %indvars.iv.next = add nuw nsw i64 %indvars.iv, 1
  %7 = load i32, ptr getelementptr inbounds nuw (i8, ptr @tmpfiles, i64 12), align 4, !tbaa !15
  %8 = sext i32 %7 to i64
  %9 = icmp slt i64 %indvars.iv.next, %8
  br i1 %9, label %.lr.ph, label %._crit_edge, !llvm.loop !61
}